; Function Attrs: nounwind uwtable
define void @Rwr_CutCountNumNodes_rec(ptr noundef %0, ptr noundef readonly captures(none) %1, ptr noundef captures(none) %2) local_unnamed_addr #0 {
  %4 = getelementptr inbounds nuw i8, ptr %1, i64 24
  %5 = getelementptr inbounds nuw i8, ptr %2, i64 4
  %.phi.trans.insert.i23 = getelementptr inbounds nuw i8, ptr %2, i64 8
  br label %tailrecurse

tailrecurse:                                      ; preds = %84, %3
  %.tr = phi ptr [ %0, %3 ], [ %96, %84 ]
  %6 = load i32, ptr %1, align 8
  %.not = icmp ult i32 %6, 268435456
  br i1 %.not, label %._crit_edge, label %.lr.ph

.lr.ph:                                           ; preds = %tailrecurse
  %7 = lshr i32 %6, 28
  %8 = getelementptr inbounds nuw i8, ptr %.tr, i64 16
  %9 = load i32, ptr %8, align 8, !tbaa !99
  %wide.trip.count = zext nneg i32 %7 to i64
  br label %11

10:                                               ; preds = %11
  %indvars.iv.next = add nuw nsw i64 %indvars.iv, 1
  %exitcond.not = icmp eq i64 %indvars.iv.next, %wide.trip.count
  br i1 %exitcond.not, label %._crit_edge, label %11, !llvm.loop !100

11:                                               ; preds = %.lr.ph, %10
  %indvars.iv = phi i64 [ 0, %.lr.ph ], [ %indvars.iv.next, %10 ]
  %12 = getelementptr inbounds nuw [0 x i32], ptr %4, i64 0, i64 %indvars.iv
  %13 = load i32, ptr %12, align 4, !tbaa !25
  %14 = icmp eq i32 %13, %9
  br i1 %14, label %15, label %10

15:                                               ; preds = %11
  %16 = getelementptr inbounds nuw i8, ptr %.tr, i64 20
  %17 = load i32, ptr %16, align 4
  %18 = and i32 %17, 64
  %19 = icmp eq i32 %18, 0
  br i1 %19, label %20, label %97

20:                                               ; preds = %15
  %21 = or disjoint i32 %17, 64
  store i32 %21, ptr %16, align 4
  %22 = load i32, ptr %5, align 4, !tbaa !32
  %23 = load i32, ptr %2, align 8, !tbaa !34
  %24 = icmp eq i32 %22, %23
  br i1 %24, label %25, label %.Vec_PtrGrow.exit11_crit_edge.i

.Vec_PtrGrow.exit11_crit_edge.i:                  ; preds = %20
  %.pre.i = load ptr, ptr %.phi.trans.insert.i23, align 8, !tbaa !35
  br label %Vec_PtrPush.exit

25:                                               ; preds = %20
  %26 = icmp slt i32 %22, 16
  br i1 %26, label %27, label %34

27:                                               ; preds = %25
  %28 = load ptr, ptr %.phi.trans.insert.i23, align 8, !tbaa !35
  %.not9.i.i = icmp eq ptr %28, null
  br i1 %.not9.i.i, label %31, label %29

29:                                               ; preds = %27
  %30 = tail call dereferenceable_or_null(128) ptr @realloc(ptr noundef nonnull %28, i64 noundef 128) #14
  br label %Vec_PtrGrow.exit.i

31:                                               ; preds = %27
  %32 = tail call noalias dereferenceable_or_null(128) ptr @malloc(i64 noundef 128) #15
  br label %Vec_PtrGrow.exit.i

Vec_PtrGrow.exit.i:                               ; preds = %31, %29
  %33 = phi ptr [ %30, %29 ], [ %32, %31 ]
  store ptr %33, ptr %.phi.trans.insert.i23, align 8, !tbaa !35
  store i32 16, ptr %2, align 8, !tbaa !34
  br label %Vec_PtrPush.exit

34:                                               ; preds = %25
  %35 = shl nuw nsw i32 %22, 1
  %36 = load ptr, ptr %.phi.trans.insert.i23, align 8, !tbaa !35
  %.not9.i10.i = icmp eq ptr %36, null
  %37 = zext nneg i32 %35 to i64
  %38 = shl nuw nsw i64 %37, 3
  br i1 %.not9.i10.i, label %41, label %39

39:                                               ; preds = %34
  %40 = tail call ptr @realloc(ptr noundef nonnull %36, i64 noundef %38) #14
  br label %43

41:                                               ; preds = %34
  %42 = tail call noalias ptr @malloc(i64 noundef %38) #15
  br label %43

43:                                               ; preds = %41, %39
  %44 = phi ptr [ %40, %39 ], [ %42, %41 ]
  store ptr %44, ptr %.phi.trans.insert.i23, align 8, !tbaa !35
  store i32 %35, ptr %2, align 8, !tbaa !34
  br label %Vec_PtrPush.exit

Vec_PtrPush.exit:                                 ; preds = %.Vec_PtrGrow.exit11_crit_edge.i, %Vec_PtrGrow.exit.i, %43
  %45 = phi ptr [ %.pre.i, %.Vec_PtrGrow.exit11_crit_edge.i ], [ %44, %43 ], [ %33, %Vec_PtrGrow.exit.i ]
  %46 = load i32, ptr %5, align 4, !tbaa !32
  %47 = add nsw i32 %46, 1
  store i32 %47, ptr %5, align 4, !tbaa !32
  %48 = sext i32 %46 to i64
  %49 = getelementptr inbounds ptr, ptr %45, i64 %48
  store ptr %.tr, ptr %49, align 8, !tbaa !36
  br label %97

._crit_edge:                                      ; preds = %10, %tailrecurse
  %50 = getelementptr inbounds nuw i8, ptr %.tr, i64 20
  %51 = load i32, ptr %50, align 4
  %52 = and i32 %51, 64
  %53 = icmp eq i32 %52, 0
  br i1 %53, label %54, label %84

54:                                               ; preds = %._crit_edge
  %55 = or disjoint i32 %51, 64
  store i32 %55, ptr %50, align 4
  %56 = load i32, ptr %5, align 4, !tbaa !32
  %57 = load i32, ptr %2, align 8, !tbaa !34
  %58 = icmp eq i32 %56, %57
  br i1 %58, label %59, label %.Vec_PtrGrow.exit11_crit_edge.i22

.Vec_PtrGrow.exit11_crit_edge.i22:                ; preds = %54
  %.pre.i24 = load ptr, ptr %.phi.trans.insert.i23, align 8, !tbaa !35
  br label %Vec_PtrPush.exit28

59:                                               ; preds = %54
  %60 = icmp slt i32 %56, 16
  br i1 %60, label %61, label %68

61:                                               ; preds = %59
  %62 = load ptr, ptr %.phi.trans.insert.i23, align 8, !tbaa !35
  %.not9.i.i26 = icmp eq ptr %62, null
  br i1 %.not9.i.i26, label %65, label %63

63:                                               ; preds = %61
  %64 = tail call dereferenceable_or_null(128) ptr @realloc(ptr noundef nonnull %62, i64 noundef 128) #14
  br label %Vec_PtrGrow.exit.i27

65:                                               ; preds = %61
  %66 = tail call noalias dereferenceable_or_null(128) ptr @malloc(i64 noundef 128) #15
  br label %Vec_PtrGrow.exit.i27

Vec_PtrGrow.exit.i27:                             ; preds = %65, %63
  %67 = phi ptr [ %64, %63 ], [ %66, %65 ]
  store ptr %67, ptr %.phi.trans.insert.i23, align 8, !tbaa !35
  store i32 16, ptr %2, align 8, !tbaa !34
  br label %Vec_PtrPush.exit28

68:                                               ; preds = %59
  %69 = shl nuw nsw i32 %56, 1
  %70 = load ptr, ptr %.phi.trans.insert.i23, align 8, !tbaa !35
  %.not9.i10.i25 = icmp eq ptr %70, null
  %71 = zext nneg i32 %69 to i64
  %72 = shl nuw nsw i64 %71, 3
  br i1 %.not9.i10.i25, label %75, label %73

73:                                               ; preds = %68
  %74 = tail call ptr @realloc(ptr noundef nonnull %70, i64 noundef %72) #14
  br label %77

75:                                               ; preds = %68
  %76 = tail call noalias ptr @malloc(i64 noundef %72) #15
  br label %77

77:                                               ; preds = %75, %73
  %78 = phi ptr [ %74, %73 ], [ %76, %75 ]
  store ptr %78, ptr %.phi.trans.insert.i23, align 8, !tbaa !35
  store i32 %69, ptr %2, align 8, !tbaa !34
  br label %Vec_PtrPush.exit28

Vec_PtrPush.exit28:                               ; preds = %.Vec_PtrGrow.exit11_crit_edge.i22, %Vec_PtrGrow.exit.i27, %77
  %79 = phi ptr [ %.pre.i24, %.Vec_PtrGrow.exit11_crit_edge.i22 ], [ %78, %77 ], [ %67, %Vec_PtrGrow.exit.i27 ]
  %80 = load i32, ptr %5, align 4, !tbaa !32
  %81 = add nsw i32 %80, 1
  store i32 %81, ptr %5, align 4, !tbaa !32
  %82 = sext i32 %80 to i64
  %83 = getelementptr inbounds ptr, ptr %79, i64 %82
  store ptr %.tr, ptr %83, align 8, !tbaa !36
  br label %84

84:                                               ; preds = %Vec_PtrPush.exit28, %._crit_edge
  %.val = load ptr, ptr %.tr, align 8, !tbaa !39
  %85 = getelementptr i8, ptr %.tr, i64 32
  %.val19 = load ptr, ptr %85, align 8, !tbaa !98
  %86 = getelementptr i8, ptr %.val, i64 32
  %.val.val = load ptr, ptr %86, align 8, !tbaa !45
  %.val19.val = load i32, ptr %.val19, align 4, !tbaa !25
  %87 = getelementptr i8, ptr %.val.val, i64 8
  %.val.val.val = load ptr, ptr %87, align 8, !tbaa !35
  %88 = sext i32 %.val19.val to i64
  %89 = getelementptr inbounds ptr, ptr %.val.val.val, i64 %88
  %90 = load ptr, ptr %89, align 8, !tbaa !36
  tail call void @Rwr_CutCountNumNodes_rec(ptr noundef %90, ptr noundef nonnull %1, ptr noundef %2)
  %.val20 = load ptr, ptr %.tr, align 8, !tbaa !39
  %.val21 = load ptr, ptr %85, align 8, !tbaa !98
  %91 = getelementptr i8, ptr %.val20, i64 32
  %.val20.val = load ptr, ptr %91, align 8, !tbaa !45
  %92 = getelementptr i8, ptr %.val21, i64 4
  %.val21.val = load i32, ptr %92, align 4, !tbaa !25
  %93 = getelementptr i8, ptr %.val20.val, i64 8
  %.val20.val.val = load ptr, ptr %93, align 8, !tbaa !35
  %94 = sext i32 %.val21.val to i64
  %95 = getelementptr inbounds ptr, ptr %.val20.val.val, i64 %94
  %96 = load ptr, ptr %95, align 8, !tbaa !36
  br label %tailrecurse

97:                                               ; preds = %15, %Vec_PtrPush.exit
  ret void
}